; Function Attrs: nounwind uwtable
define i32 @cl_scanfile_callback(ptr noundef %0, ptr noundef %1, ptr noundef %2, ptr noundef %3, ptr noundef %4, ptr noundef %5) local_unnamed_addr #0 {
  %.not = icmp eq ptr %0, null
  br i1 %.not, label %17, label %7

7:                                                ; preds = %6
  %8 = tail call i32 (ptr, i32, ...) @open(ptr noundef nonnull %0, i32 noundef 0) #16
  %9 = icmp eq i32 %8, -1
  br i1 %9, label %10, label %14

10:                                               ; preds = %7
  %11 = tail call ptr @__errno_location() #20
  %12 = load i32, ptr %11, align 4
  %13 = icmp eq i32 %12, 13
  %. = select i1 %13, i32 16, i32 8
  br label %17

14:                                               ; preds = %7
  %15 = tail call i32 @cl_scandesc_callback(i32 noundef %8, ptr noundef nonnull %0, ptr noundef %1, ptr noundef %2, ptr noundef %3, ptr noundef %4, ptr noundef %5)
  %16 = tail call i32 @close(i32 noundef %8) #16
  br label %17

17:                                               ; preds = %10, %6, %14
  %.0 = phi i32 [ %15, %14 ], [ 3, %6 ], [ %., %10 ]
  ret i32 %.0
}